target datalayout = "e-m:e-p270:32:32-p271:32:32-p272:64:64-i64:64-i128:128-f80:128-n8:16:32:64-S128"
target triple = "x86_64-pc-linux-gnu"

%class.TypeOopPtr = type { %class.TypePtr.base, ptr, ptr, ptr, i8, i8, i8, i8, i32 }
%class.TypePtr.base = type <{ %class.Type.base, [4 x i8], ptr, i32, i32, i32 }>
%class.Type.base = type <{ ptr, ptr, i32 }>
%class.TypePtr = type <{ %class.Type.base, [4 x i8], ptr, i32, i32, i32, [4 x i8] }>

; Function Attrs: mustprogress nounwind uwtable
define linkonce_odr hidden noundef ptr @_ZNK10TypeOopPtr9const_oopEv(ptr noundef nonnull align 8 dereferenceable(80) %0) #1 comdat align 2 {
  %2 = alloca ptr, align 8
  store ptr %0, ptr %2, align 8
  %3 = load ptr, ptr %2, align 8
  %4 = getelementptr inbounds %class.TypeOopPtr, ptr %3, i32 0, i32 1
  %5 = load ptr, ptr %4, align 8
  ret ptr %5
}

; Function Attrs: mustprogress nounwind uwtable
define hidden noundef ptr @_ZNK11TypeInstPtr16cast_to_ptr_typeEN7TypePtr3PTRE(ptr noundef nonnull align 8 dereferenceable(80) %0, i32 noundef %1) unnamed_addr #1 align 2 {
  %3 = alloca ptr, align 8
  %4 = alloca ptr, align 8
  %5 = alloca i32, align 4
  store ptr %0, ptr %4, align 8
  store i32 %1, ptr %5, align 4
  %6 = load ptr, ptr %4, align 8
  %7 = load i32, ptr %5, align 4
  %8 = getelementptr inbounds %class.TypePtr, ptr %6, i32 0, i32 5
  %9 = load i32, ptr %8, align 8
  %10 = icmp eq i32 %7, %9
  br i1 %10, label %11, label %12

11:                                               ; preds = %2
  store ptr %6, ptr %3, align 8
  br label %40

12:                                               ; preds = %2
  %13 = load i32, ptr %5, align 4
  %14 = load ptr, ptr %6, align 8
  %15 = getelementptr inbounds ptr, ptr %14, i64 29
  %16 = load ptr, ptr %15, align 8
  %17 = call noundef ptr %16(ptr noundef nonnull align 8 dereferenceable(80) %6)
  %18 = getelementptr inbounds %class.TypeOopPtr, ptr %6, i32 0, i32 3
  %19 = load ptr, ptr %18, align 8
  %20 = load ptr, ptr %6, align 8
  %21 = getelementptr inbounds ptr, ptr %20, i64 34
  %22 = load ptr, ptr %21, align 8
  %23 = call noundef zeroext i1 %22(ptr noundef nonnull align 8 dereferenceable(80) %6)
  %24 = load i32, ptr %5, align 4
  %25 = icmp eq i32 %24, 2
  br i1 %25, label %26, label %28

26:                                               ; preds = %12
  %27 = call noundef ptr @_ZNK10TypeOopPtr9const_oopEv(ptr noundef nonnull align 8 dereferenceable(80) %6)
  br label %29

28:                                               ; preds = %12
  br label %29

29:                                               ; preds = %28, %26
  %30 = phi ptr [ %27, %26 ], [ null, %28 ]
  %31 = getelementptr inbounds %class.TypePtr, ptr %6, i32 0, i32 4
  %32 = load i32, ptr %31, align 4
  %33 = getelementptr inbounds %class.TypeOopPtr, ptr %6, i32 0, i32 8
  %34 = load i32, ptr %33, align 4
  %35 = getelementptr inbounds %class.TypePtr, ptr %6, i32 0, i32 2
  %36 = load ptr, ptr %35, align 8
  %37 = getelementptr inbounds %class.TypePtr, ptr %6, i32 0, i32 3
  %38 = load i32, ptr %37, align 8
  %39 = call noundef ptr @_ZN11TypeInstPtr4makeEN7TypePtr3PTREP7ciKlassPK14TypeInterfacesbP8ciObjectiiPKS0_i(i32 noundef %13, ptr noundef %17, ptr noundef %19, i1 noundef zeroext %23, ptr noundef %30, i32 noundef %32, i32 noundef %34, ptr noundef %36, i32 noundef %38)
  store ptr %39, ptr %3, align 8
  br label %40

40:                                               ; preds = %29, %11
  %41 = load ptr, ptr %3, align 8
  ret ptr %41
}