; Function Attrs: mustprogress nounwind uwtable
define hidden noundef ptr @_ZNK11TypeInstPtr16cast_to_ptr_typeEN7TypePtr3PTRE(ptr noundef nonnull align 8 dereferenceable(80) %0, i32 noundef %1) unnamed_addr #0 align 2 {
  %3 = getelementptr inbounds i8, ptr %0, i64 40
  %4 = load i32, ptr %3, align 8
  %5 = icmp eq i32 %4, %1
  br i1 %5, label %59, label %6

6:                                                ; preds = %2
  %7 = load ptr, ptr %0, align 8
  %8 = getelementptr inbounds i8, ptr %7, i64 232
  %9 = load ptr, ptr %8, align 8
  %10 = tail call noundef ptr %9(ptr noundef nonnull align 8 dereferenceable(80) %0) #17
  %11 = getelementptr inbounds i8, ptr %0, i64 64
  %12 = load ptr, ptr %11, align 8
  %13 = load ptr, ptr %0, align 8
  %14 = getelementptr inbounds i8, ptr %13, i64 272
  %15 = load ptr, ptr %14, align 8
  %16 = tail call noundef zeroext i1 %15(ptr noundef nonnull align 8 dereferenceable(80) %0) #17
  %17 = icmp eq i32 %1, 2
  br i1 %17, label %.split, label %.split4

.split4:                                          ; preds = %6
  %18 = getelementptr inbounds i8, ptr %0, i64 36
  %19 = load i32, ptr %18, align 4
  %20 = getelementptr inbounds i8, ptr %0, i64 76
  %21 = load i32, ptr %20, align 4
  %22 = getelementptr inbounds i8, ptr %0, i64 24
  %23 = load ptr, ptr %22, align 8
  %24 = getelementptr inbounds i8, ptr %0, i64 32
  %25 = load i32, ptr %24, align 8
  %26 = tail call noundef ptr @_ZN11TypeInstPtr4makeEN7TypePtr3PTREP7ciKlassPK14TypeInterfacesbP8ciObjectiiPKS0_i(i32 noundef %1, ptr noundef %10, ptr noundef %12, i1 noundef zeroext %16, ptr noundef null, i32 noundef %19, i32 noundef %21, ptr noundef %23, i32 noundef %25)
  br label %59

.split:                                           ; preds = %6
  %27 = getelementptr inbounds i8, ptr %0, i64 48
  %28 = load ptr, ptr %27, align 8
  %29 = getelementptr inbounds i8, ptr %0, i64 36
  %30 = load i32, ptr %29, align 4
  %31 = getelementptr inbounds i8, ptr %0, i64 76
  %32 = load i32, ptr %31, align 4
  %33 = getelementptr inbounds i8, ptr %0, i64 24
  %34 = load ptr, ptr %33, align 8
  %35 = getelementptr inbounds i8, ptr %0, i64 32
  %36 = load i32, ptr %35, align 8
  %37 = tail call align 8 ptr @llvm.threadlocal.address.p0(ptr align 8 @_ZN6Thread12_thr_currentE)
  %38 = load ptr, ptr %37, align 8
  %39 = getelementptr inbounds i8, ptr %38, i64 1808
  %40 = load ptr, ptr %39, align 8
  %41 = getelementptr inbounds i8, ptr %40, i64 128
  %42 = load ptr, ptr %41, align 8
  %43 = getelementptr inbounds i8, ptr %42, i64 888
  store i64 80, ptr %43, align 8
  %44 = getelementptr inbounds i8, ptr %42, i64 848
  %45 = load ptr, ptr %44, align 8
  %46 = getelementptr inbounds i8, ptr %45, i64 40
  %47 = load ptr, ptr %46, align 8
  %48 = getelementptr inbounds i8, ptr %45, i64 32
  %49 = load ptr, ptr %48, align 8
  %50 = ptrtoint ptr %47 to i64
  %51 = ptrtoint ptr %49 to i64
  %52 = sub i64 %50, %51
  %.not.i.i.i.i = icmp ult i64 %52, 80
  br i1 %.not.i.i.i.i, label %55, label %53

53:                                               ; preds = %.split
  %54 = getelementptr inbounds i8, ptr %49, i64 80
  store ptr %54, ptr %48, align 8
  br label %_ZN11TypeInstPtr4makeEN7TypePtr3PTREP7ciKlassPK14TypeInterfacesbP8ciObjectiiPKS0_i.exit

55:                                               ; preds = %.split
  %56 = tail call noundef ptr @_ZN5Arena4growEmN17AllocFailStrategy13AllocFailEnumE(ptr noundef nonnull align 8 dereferenceable(48) %45, i64 noundef 80, i32 noundef 0) #17
  br label %_ZN11TypeInstPtr4makeEN7TypePtr3PTREP7ciKlassPK14TypeInterfacesbP8ciObjectiiPKS0_i.exit

_ZN11TypeInstPtr4makeEN7TypePtr3PTREP7ciKlassPK14TypeInterfacesbP8ciObjectiiPKS0_i.exit: ; preds = %53, %55
  %.0.i.i.i.i = phi ptr [ %49, %53 ], [ %56, %55 ]
  %57 = icmp ne ptr %.0.i.i.i.i, null
  tail call void @llvm.assume(i1 %57)
  tail call void @_ZN10TypeOopPtrC2EN4Type5TYPESEN7TypePtr3PTREP7ciKlassPK14TypeInterfacesbP8ciObjectiiPKS2_i(ptr noundef nonnull align 8 dereferenceable(80) %.0.i.i.i.i, i32 noundef 21, i32 noundef 2, ptr noundef %10, ptr noundef %12, i1 noundef zeroext true, ptr noundef %28, i32 noundef %30, i32 noundef %32, ptr noundef %34, i32 noundef %36)
  store ptr getelementptr inbounds inrange(-16, 352) (i8, ptr @_ZTV11TypeInstPtr, i64 16), ptr %.0.i.i.i.i, align 8
  %58 = tail call noundef ptr @_ZN4Type8hashconsEv(ptr noundef nonnull align 8 dereferenceable(20) %.0.i.i.i.i)
  br label %59

59:                                               ; preds = %_ZN11TypeInstPtr4makeEN7TypePtr3PTREP7ciKlassPK14TypeInterfacesbP8ciObjectiiPKS0_i.exit, %.split4, %2
  %.0 = phi ptr [ %0, %2 ], [ %58, %_ZN11TypeInstPtr4makeEN7TypePtr3PTREP7ciKlassPK14TypeInterfacesbP8ciObjectiiPKS0_i.exit ], [ %26, %.split4 ]
  ret ptr %.0
}